; Function Attrs: nounwind uwtable
define void @Abc_NtkDarTest(ptr noundef %0, i32 noundef %1) local_unnamed_addr #1 {
  %3 = tail call ptr @Abc_NtkToDar(ptr noundef %0, i32 noundef 0, i32 noundef 1)
  %4 = icmp eq ptr %3, null
  br i1 %4, label %6, label %5

5:                                                ; preds = %2
  tail call void @Aig_ManStop(ptr noundef nonnull %3) #19
  br label %6

6:                                                ; preds = %2, %5
  ret void
}